target datalayout = "e-m:e-p270:32:32-p271:32:32-p272:64:64-i64:64-i128:128-f80:128-n8:16:32:64-S128"
target triple = "x86_64-pc-linux-gnu"

%union.SourceSpan = type { i64 }
%union.anon.2 = type { ptr }
%union.anon.3 = type { i16 }
%union.anon.4 = type { %struct.FuncDecl }
%struct.FuncDecl = type { i32, [4 x i8], %struct.Signature_, i32, i32, %union.anon.11 }
%struct.Signature_ = type <{ %struct.CalleeAttributes, i16, i8, i32, i32, [4 x i8], ptr }>
%struct.CalleeAttributes = type { i8 }
%union.anon.11 = type { %struct.anon.12 }
%struct.anon.12 = type { i16, %union.anon.13 }
%union.anon.13 = type { ptr }
%struct.Decl_ = type { ptr, ptr, %union.SourceSpan, i64, %union.anon.2, i32, %union.anon.3, i64, ptr, ptr, ptr, %union.anon.4 }

; Function Attrs: nounwind uwtable
define dso_local zeroext i1 @decl_needs_prefix(ptr noundef %0) #0 {
  %2 = alloca i1, align 1
  %3 = alloca ptr, align 8
  store ptr %0, ptr %3, align 8
  %4 = load ptr, ptr %3, align 8
  %5 = getelementptr inbounds %struct.Decl_, ptr %4, i32 0, i32 3
  %6 = load i64, ptr %5, align 8
  %7 = and i64 %6, 127
  %8 = trunc i64 %7 to i32
  switch i32 %8, label %17 [
    i32 26, label %9
    i32 17, label %9
    i32 21, label %9
  ]

9:                                                ; preds = %1, %1, %1
  %10 = load ptr, ptr %3, align 8
  %11 = getelementptr inbounds %struct.Decl_, ptr %10, i32 0, i32 3
  %12 = load i64, ptr %11, align 8
  %13 = lshr i64 %12, 18
  %14 = and i64 %13, 1
  %15 = trunc i64 %14 to i1
  %16 = xor i1 %15, true
  store i1 %16, ptr %2, align 1
  br label %18

17:                                               ; preds = %1
  store i1 false, ptr %2, align 1
  br label %18

18:                                               ; preds = %17, %9
  %19 = load i1, ptr %2, align 1
  ret i1 %19
}