; Function Attrs: mustprogress nofree norecurse nosync nounwind willreturn memory(argmem: read) uwtable
define dso_local zeroext i1 @decl_needs_prefix(ptr nocapture noundef readonly %0) local_unnamed_addr #1 {
  %2 = getelementptr inbounds i8, ptr %0, i64 24
  %3 = load i64, ptr %2, align 8
  %4 = trunc i64 %3 to i32
  %5 = and i32 %4, 127
  switch i32 %5, label %8 [
    i32 26, label %6
    i32 17, label %6
    i32 21, label %6
  ]

6:                                                ; preds = %1, %1, %1
  %7 = and i64 %3, 262144
  %.not = icmp eq i64 %7, 0
  br label %8

8:                                                ; preds = %1, %6
  %.0 = phi i1 [ %.not, %6 ], [ false, %1 ]
  ret i1 %.0
}